target datalayout = "e-m:e-p270:32:32-p271:32:32-p272:64:64-i64:64-i128:128-f80:128-n8:16:32:64-S128"
target triple = "x86_64-pc-linux-gnu"

%"struct.Luau::FValue" = type { i8, i8, ptr, ptr }

@_ZN4Luau6FValueIbE4listE = linkonce_odr dso_local global ptr null, comdat, align 8
@.str = private unnamed_addr constant [5 x i8] c"Luau\00", align 1
@_ZZN4Luau18isFlagExperimentalEPKcE5kList = linkonce_odr dso_local constant [4 x ptr] [ptr @.str.7, ptr @.str.8, ptr @.str.9, ptr null], comdat, align 16

; Function Attrs: mustprogress nounwind uwtable
define linkonce_odr dso_local noundef zeroext i1 @_ZN4Luau18isFlagExperimentalEPKc(ptr noundef %0) #2 comdat {
  %2 = alloca i1, align 1
  %3 = alloca ptr, align 8
  %4 = alloca ptr, align 8
  %5 = alloca ptr, align 8
  %6 = alloca ptr, align 8
  %7 = alloca ptr, align 8
  store ptr %0, ptr %3, align 8
  store ptr @_ZZN4Luau18isFlagExperimentalEPKcE5kList, ptr %4, align 8
  store ptr @_ZZN4Luau18isFlagExperimentalEPKcE5kList, ptr %5, align 8
  store ptr getelementptr inbounds (ptr, ptr @_ZZN4Luau18isFlagExperimentalEPKcE5kList, i64 4), ptr %6, align 8
  br label %8

8:                                                ; preds = %24, %1
  %9 = load ptr, ptr %5, align 8
  %10 = load ptr, ptr %6, align 8
  %11 = icmp ne ptr %9, %10
  br i1 %11, label %12, label %27

12:                                               ; preds = %8
  %13 = load ptr, ptr %5, align 8
  %14 = load ptr, ptr %13, align 8
  store ptr %14, ptr %7, align 8
  %15 = load ptr, ptr %7, align 8
  %16 = icmp ne ptr %15, null
  br i1 %16, label %17, label %23

17:                                               ; preds = %12
  %18 = load ptr, ptr %7, align 8
  %19 = load ptr, ptr %3, align 8
  %20 = call i32 @strcmp(ptr noundef %18, ptr noundef %19) #7
  %21 = icmp eq i32 %20, 0
  br i1 %21, label %22, label %23

22:                                               ; preds = %17
  store i1 true, ptr %2, align 1
  br label %28

23:                                               ; preds = %17, %12
  br label %24

24:                                               ; preds = %23
  %25 = load ptr, ptr %5, align 8
  %26 = getelementptr inbounds ptr, ptr %25, i32 1
  store ptr %26, ptr %5, align 8
  br label %8

27:                                               ; preds = %8
  store i1 false, ptr %2, align 1
  br label %28

28:                                               ; preds = %27, %22
  %29 = load i1, ptr %2, align 1
  ret i1 %29
}

; Function Attrs: mustprogress uwtable
define dso_local void @_Z19setLuauFlagsDefaultv() #0 {
  %1 = alloca ptr, align 8
  %2 = load ptr, ptr @_ZN4Luau6FValueIbE4listE, align 8
  store ptr %2, ptr %1, align 8
  br label %3

3:                                                ; preds = %21, %0
  %4 = load ptr, ptr %1, align 8
  %5 = icmp ne ptr %4, null
  br i1 %5, label %6, label %25

6:                                                ; preds = %3
  %7 = load ptr, ptr %1, align 8
  %8 = getelementptr inbounds %"struct.Luau::FValue", ptr %7, i32 0, i32 2
  %9 = load ptr, ptr %8, align 8
  %10 = call i32 @strncmp(ptr noundef %9, ptr noundef @.str, i64 noundef 4) #7
  %11 = icmp eq i32 %10, 0
  br i1 %11, label %12, label %20

12:                                               ; preds = %6
  %13 = load ptr, ptr %1, align 8
  %14 = getelementptr inbounds %"struct.Luau::FValue", ptr %13, i32 0, i32 2
  %15 = load ptr, ptr %14, align 8
  %16 = call noundef zeroext i1 @_ZN4Luau18isFlagExperimentalEPKc(ptr noundef %15)
  br i1 %16, label %20, label %17

17:                                               ; preds = %12
  %18 = load ptr, ptr %1, align 8
  %19 = getelementptr inbounds %"struct.Luau::FValue", ptr %18, i32 0, i32 0
  store i8 1, ptr %19, align 8
  br label %20

20:                                               ; preds = %17, %12, %6
  br label %21

21:                                               ; preds = %20
  %22 = load ptr, ptr %1, align 8
  %23 = getelementptr inbounds %"struct.Luau::FValue", ptr %22, i32 0, i32 3
  %24 = load ptr, ptr %23, align 8
  store ptr %24, ptr %1, align 8
  br label %3, !llvm.loop !5

25:                                               ; preds = %3
  ret void
}