; Function Attrs: mustprogress nofree nounwind memory(readwrite, inaccessiblemem: none) uwtable
define dso_local void @_Z19setLuauFlagsDefaultv() local_unnamed_addr #0 {
  %.06 = load ptr, ptr @_ZN4Luau6FValueIbE4listE, align 8
  %.not7 = icmp eq ptr %.06, null
  br i1 %.not7, label %._crit_edge, label %.lr.ph

.lr.ph:                                           ; preds = %0, %_ZN4Luau18isFlagExperimentalEPKc.exit.thread
  %.08 = phi ptr [ %.0, %_ZN4Luau18isFlagExperimentalEPKc.exit.thread ], [ %.06, %0 ]
  %1 = getelementptr inbounds i8, ptr %.08, i64 8
  %2 = load ptr, ptr %1, align 8
  %3 = tail call i32 @strncmp(ptr noundef nonnull dereferenceable(1) %2, ptr noundef nonnull dereferenceable(5) @.str, i64 noundef 4) #7
  %4 = icmp eq i32 %3, 0
  br i1 %4, label %.preheader, label %_ZN4Luau18isFlagExperimentalEPKc.exit.thread

.preheader:                                       ; preds = %.lr.ph, %9
  %.08.idx11.i = phi i64 [ %.08.add.i, %9 ], [ 0, %.lr.ph ]
  %.08.ptr.i = getelementptr inbounds i8, ptr @_ZZN4Luau18isFlagExperimentalEPKcE5kList, i64 %.08.idx11.i
  %5 = load ptr, ptr %.08.ptr.i, align 8
  %.not10.i = icmp eq ptr %5, null
  br i1 %.not10.i, label %9, label %6

6:                                                ; preds = %.preheader
  %7 = tail call i32 @strcmp(ptr noundef nonnull dereferenceable(1) %5, ptr noundef nonnull dereferenceable(1) %2) #7
  %8 = icmp eq i32 %7, 0
  br i1 %8, label %_ZN4Luau18isFlagExperimentalEPKc.exit.thread, label %9

9:                                                ; preds = %6, %.preheader
  %.08.add.i = add nuw nsw i64 %.08.idx11.i, 8
  %.not.not.i = icmp eq i64 %.08.add.i, 32
  br i1 %.not.not.i, label %_ZN4Luau18isFlagExperimentalEPKc.exit, label %.preheader

_ZN4Luau18isFlagExperimentalEPKc.exit:            ; preds = %9
  store i8 1, ptr %.08, align 8
  br label %_ZN4Luau18isFlagExperimentalEPKc.exit.thread

_ZN4Luau18isFlagExperimentalEPKc.exit.thread:     ; preds = %6, %.lr.ph, %_ZN4Luau18isFlagExperimentalEPKc.exit
  %10 = getelementptr inbounds i8, ptr %.08, i64 16
  %.0 = load ptr, ptr %10, align 8
  %.not = icmp eq ptr %.0, null
  br i1 %.not, label %._crit_edge, label %.lr.ph, !llvm.loop !5

._crit_edge:                                      ; preds = %_ZN4Luau18isFlagExperimentalEPKc.exit.thread, %0
  ret void
}